target datalayout = "e-m:e-p270:32:32-p271:32:32-p272:64:64-i64:64-i128:128-f80:128-n8:16:32:64-S128"
target triple = "x86_64-unknown-linux-gnu"

%struct.sharedObjectsStruct = type { ptr, ptr, ptr, ptr, ptr, ptr, ptr, ptr, [4 x ptr], [4 x ptr], [4 x ptr], [4 x ptr], ptr, ptr, ptr, ptr, ptr, ptr, ptr, ptr, ptr, ptr, ptr, ptr, ptr, ptr, ptr, ptr, ptr, ptr, ptr, ptr, ptr, ptr, ptr, ptr, ptr, ptr, ptr, ptr, ptr, ptr, ptr, ptr, ptr, ptr, ptr, ptr, ptr, ptr, ptr, ptr, ptr, ptr, ptr, ptr, ptr, ptr, ptr, ptr, ptr, ptr, ptr, ptr, ptr, ptr, ptr, ptr, ptr, ptr, ptr, ptr, ptr, ptr, ptr, ptr, ptr, ptr, ptr, ptr, ptr, ptr, ptr, ptr, ptr, [10 x ptr], [10000 x ptr], [32 x ptr], [32 x ptr], [32 x ptr], [32 x ptr], ptr, ptr }
%struct.redisObject = type { i32, i32, ptr }

@shared = external global %struct.sharedObjectsStruct, align 8
@.str.7 = private unnamed_addr constant [3 x i8] c"%s\00", align 1
@.str.8 = private unnamed_addr constant [5 x i8] c"VOID\00", align 1

; Function Attrs: nounwind uwtable
define dso_local void @mallctl_string(ptr noundef %c, ptr noundef %argv, i32 noundef %argc) #0 {
entry:
  %c.addr = alloca ptr, align 8
  %argv.addr = alloca ptr, align 8
  %argc.addr = alloca i32, align 4
  %rret = alloca i32, align 4
  %wret = alloca i32, align 4
  %old = alloca ptr, align 8
  %sz = alloca i64, align 8
  %val = alloca ptr, align 8
  %valref = alloca ptr, align 8
  store ptr %c, ptr %c.addr, align 8
  store ptr %argv, ptr %argv.addr, align 8
  store i32 %argc, ptr %argc.addr, align 4
  store i64 8, ptr %sz, align 8
  %0 = load ptr, ptr %argv.addr, align 8
  %arrayidx = getelementptr inbounds ptr, ptr %0, i64 0
  %1 = load ptr, ptr %arrayidx, align 8
  %ptr = getelementptr inbounds %struct.redisObject, ptr %1, i32 0, i32 2
  %2 = load ptr, ptr %ptr, align 8
  %call = call i32 @je_mallctl(ptr noundef %2, ptr noundef %old, ptr noundef %sz, ptr noundef null, i64 noundef 0) #14
  store i32 %call, ptr %rret, align 4
  %tobool = icmp ne i32 %call, 0
  br i1 %tobool, label %if.then, label %if.end4

if.then:                                          ; preds = %entry
  %3 = load i32, ptr %rret, align 4
  %cmp = icmp eq i32 %3, 1
  br i1 %cmp, label %land.lhs.true, label %if.then2

land.lhs.true:                                    ; preds = %if.then
  %4 = load i32, ptr %argc.addr, align 4
  %cmp1 = icmp sgt i32 %4, 1
  br i1 %cmp1, label %if.end, label %if.then2

if.then2:                                         ; preds = %land.lhs.true, %if.then
  %5 = load ptr, ptr %c.addr, align 8
  %6 = load i32, ptr %rret, align 4
  %call3 = call ptr @strerror(i32 noundef %6) #14
  call void (ptr, ptr, ...) @addReplyErrorFormat(ptr noundef %5, ptr noundef @.str.7, ptr noundef %call3)
  br label %if.end24

if.end:                                           ; preds = %land.lhs.true
  br label %if.end4

if.end4:                                          ; preds = %if.end, %entry
  %7 = load i32, ptr %argc.addr, align 4
  %cmp5 = icmp sgt i32 %7, 1
  br i1 %cmp5, label %if.then6, label %if.end16

if.then6:                                         ; preds = %if.end4
  %8 = load ptr, ptr %argv.addr, align 8
  %arrayidx7 = getelementptr inbounds ptr, ptr %8, i64 1
  %9 = load ptr, ptr %arrayidx7, align 8
  %ptr8 = getelementptr inbounds %struct.redisObject, ptr %9, i32 0, i32 2
  %10 = load ptr, ptr %ptr8, align 8
  store ptr %10, ptr %val, align 8
  store ptr %val, ptr %valref, align 8
  %11 = load ptr, ptr %val, align 8
  %call9 = call i32 @strcmp(ptr noundef %11, ptr noundef @.str.8) #13
  %tobool10 = icmp ne i32 %call9, 0
  br i1 %tobool10, label %if.end12, label %if.then11

if.then11:                                        ; preds = %if.then6
  store ptr null, ptr %valref, align 8
  store i64 0, ptr %sz, align 8
  br label %if.end12

if.end12:                                         ; preds = %if.then11, %if.then6
  %12 = load ptr, ptr %argv.addr, align 8
  %arrayidx13 = getelementptr inbounds ptr, ptr %12, i64 0
  %13 = load ptr, ptr %arrayidx13, align 8
  %ptr14 = getelementptr inbounds %struct.redisObject, ptr %13, i32 0, i32 2
  %14 = load ptr, ptr %ptr14, align 8
  %15 = load ptr, ptr %valref, align 8
  %16 = load i64, ptr %sz, align 8
  %call15 = call i32 @je_mallctl(ptr noundef %14, ptr noundef null, ptr noundef null, ptr noundef %15, i64 noundef %16) #14
  store i32 %call15, ptr %wret, align 4
  br label %if.end16

if.end16:                                         ; preds = %if.end12, %if.end4
  %17 = load i32, ptr %rret, align 4
  %tobool17 = icmp ne i32 %17, 0
  br i1 %tobool17, label %if.else, label %if.then18

if.then18:                                        ; preds = %if.end16
  %18 = load ptr, ptr %c.addr, align 8
  %19 = load ptr, ptr %old, align 8
  call void @addReplyBulkCString(ptr noundef %18, ptr noundef %19)
  br label %if.end24

if.else:                                          ; preds = %if.end16
  %20 = load i32, ptr %wret, align 4
  %tobool19 = icmp ne i32 %20, 0
  br i1 %tobool19, label %if.then20, label %if.else22

if.then20:                                        ; preds = %if.else
  %21 = load ptr, ptr %c.addr, align 8
  %22 = load i32, ptr %wret, align 4
  %call21 = call ptr @strerror(i32 noundef %22) #14
  call void (ptr, ptr, ...) @addReplyErrorFormat(ptr noundef %21, ptr noundef @.str.7, ptr noundef %call21)
  br label %if.end23

if.else22:                                        ; preds = %if.else
  %23 = load ptr, ptr %c.addr, align 8
  %24 = load ptr, ptr @shared, align 8
  call void @addReply(ptr noundef %23, ptr noundef %24)
  br label %if.end23

if.end23:                                         ; preds = %if.else22, %if.then20
  br label %if.end24

if.end24:                                         ; preds = %if.end23, %if.then18, %if.then2
  ret void
}