; Function Attrs: nounwind uwtable
define dso_local void @mallctl_string(ptr noundef %c, ptr nocapture noundef readonly %argv, i32 noundef %argc) local_unnamed_addr #0 {
entry:
  %old = alloca ptr, align 8
  %sz = alloca i64, align 8
  %val = alloca ptr, align 8
  store i64 8, ptr %sz, align 8
  %0 = load ptr, ptr %argv, align 8
  %ptr = getelementptr inbounds i8, ptr %0, i64 8
  %1 = load ptr, ptr %ptr, align 8
  %call = call i32 @je_mallctl(ptr noundef %1, ptr noundef nonnull %old, ptr noundef nonnull %sz, ptr noundef null, i64 noundef 0) #22
  %tobool.not = icmp eq i32 %call, 0
  br i1 %tobool.not, label %if.end4, label %if.then

if.then:                                          ; preds = %entry
  %cmp = icmp eq i32 %call, 1
  %cmp1 = icmp sgt i32 %argc, 1
  %or.cond = and i1 %cmp1, %cmp
  br i1 %or.cond, label %if.then6, label %if.then2

if.then2:                                         ; preds = %if.then
  %call3 = call ptr @strerror(i32 noundef %call) #22
  call void (ptr, ptr, ...) @addReplyErrorFormat(ptr noundef %c, ptr noundef nonnull @.str.7, ptr noundef %call3) #22
  br label %if.end24

if.end4:                                          ; preds = %entry
  %cmp5 = icmp sgt i32 %argc, 1
  br i1 %cmp5, label %if.then6, label %if.then18

if.then6:                                         ; preds = %if.then, %if.end4
  %arrayidx7 = getelementptr inbounds i8, ptr %argv, i64 8
  %2 = load ptr, ptr %arrayidx7, align 8
  %ptr8 = getelementptr inbounds i8, ptr %2, i64 8
  %3 = load ptr, ptr %ptr8, align 8
  store ptr %3, ptr %val, align 8
  %call9 = call i32 @strcmp(ptr noundef nonnull dereferenceable(1) %3, ptr noundef nonnull dereferenceable(5) @.str.8) #24
  %tobool10.not = icmp eq i32 %call9, 0
  br i1 %tobool10.not, label %if.then11, label %if.then6.if.end16_crit_edge

if.then6.if.end16_crit_edge:                      ; preds = %if.then6
  %.pre = load i64, ptr %sz, align 8
  br label %if.end16

if.then11:                                        ; preds = %if.then6
  store i64 0, ptr %sz, align 8
  br label %if.end16

if.end16:                                         ; preds = %if.then6.if.end16_crit_edge, %if.then11
  %4 = phi i64 [ %.pre, %if.then6.if.end16_crit_edge ], [ 0, %if.then11 ]
  %valref.0 = phi ptr [ %val, %if.then6.if.end16_crit_edge ], [ null, %if.then11 ]
  %5 = load ptr, ptr %argv, align 8
  %ptr14 = getelementptr inbounds i8, ptr %5, i64 8
  %6 = load ptr, ptr %ptr14, align 8
  %call15 = call i32 @je_mallctl(ptr noundef %6, ptr noundef null, ptr noundef null, ptr noundef %valref.0, i64 noundef %4) #22
  br i1 %tobool.not, label %if.then18, label %if.else

if.then18:                                        ; preds = %if.end4, %if.end16
  %7 = load ptr, ptr %old, align 8
  call void @addReplyBulkCString(ptr noundef %c, ptr noundef %7) #22
  br label %if.end24

if.else:                                          ; preds = %if.end16
  %tobool19.not = icmp eq i32 %call15, 0
  br i1 %tobool19.not, label %if.else22, label %if.then20

if.then20:                                        ; preds = %if.else
  %call21 = call ptr @strerror(i32 noundef %call15) #22
  call void (ptr, ptr, ...) @addReplyErrorFormat(ptr noundef %c, ptr noundef nonnull @.str.7, ptr noundef %call21) #22
  br label %if.end24

if.else22:                                        ; preds = %if.else
  %8 = load ptr, ptr @shared, align 8
  call void @addReply(ptr noundef %c, ptr noundef %8) #22
  br label %if.end24

if.end24:                                         ; preds = %if.then20, %if.else22, %if.then18, %if.then2
  ret void
}